target datalayout = "e-m:e-p270:32:32-p271:32:32-p272:64:64-i64:64-i128:128-f80:128-n8:16:32:64-S128"
target triple = "x86_64-pc-linux-gnu"

%struct._zval_struct = type { %union._zend_value, %union.anon.3, %union.anon.6 }
%union._zend_value = type { i64 }
%union.anon.3 = type { i32 }
%union.anon.6 = type { i32 }
%struct._php_stream_bucket_brigade = type { ptr, ptr }
%struct._php_stream_filter = type { ptr, %struct._zval_struct, ptr, ptr, i32, ptr, %struct._php_stream_bucket_brigade, ptr }

; Function Attrs: nounwind uwtable
define ptr @_php_stream_filter_alloc(ptr noundef %0, ptr noundef %1, i8 noundef zeroext %2) #0 {
  %4 = alloca ptr, align 8
  %5 = alloca ptr, align 8
  %6 = alloca i8, align 1
  %7 = alloca ptr, align 8
  store ptr %0, ptr %4, align 8
  store ptr %1, ptr %5, align 8
  store i8 %2, ptr %6, align 1
  %8 = load i8, ptr %6, align 1
  %9 = zext i8 %8 to i32
  %10 = icmp ne i32 %9, 0
  br i1 %10, label %11, label %13

11:                                               ; preds = %3
  %12 = call noalias ptr @__zend_malloc(i64 noundef 80) #13
  br label %15

13:                                               ; preds = %3
  %14 = call noalias ptr @_emalloc_80()
  br label %15

15:                                               ; preds = %13, %11
  %16 = phi ptr [ %12, %11 ], [ %14, %13 ]
  store ptr %16, ptr %7, align 8
  %17 = load ptr, ptr %7, align 8
  call void @llvm.memset.p0.i64(ptr align 8 %17, i8 0, i64 80, i1 false)
  %18 = load ptr, ptr %4, align 8
  %19 = load ptr, ptr %7, align 8
  %20 = getelementptr inbounds %struct._php_stream_filter, ptr %19, i32 0, i32 0
  store ptr %18, ptr %20, align 8
  %21 = load ptr, ptr %5, align 8
  %22 = load ptr, ptr %7, align 8
  %23 = getelementptr inbounds %struct._php_stream_filter, ptr %22, i32 0, i32 1
  %24 = getelementptr inbounds %struct._zval_struct, ptr %23, i32 0, i32 0
  store ptr %21, ptr %24, align 8
  %25 = load i8, ptr %6, align 1
  %26 = zext i8 %25 to i32
  %27 = load ptr, ptr %7, align 8
  %28 = getelementptr inbounds %struct._php_stream_filter, ptr %27, i32 0, i32 4
  store i32 %26, ptr %28, align 8
  %29 = load ptr, ptr %7, align 8
  ret ptr %29
}