; Function Attrs: nounwind uwtable
define noalias noundef ptr @_php_stream_filter_alloc(ptr noundef %0, ptr noundef %1, i8 noundef zeroext %2) local_unnamed_addr #2 {
  %.not = icmp eq i8 %2, 0
  br i1 %.not, label %6, label %4

4:                                                ; preds = %3
  %5 = tail call noalias dereferenceable_or_null(80) ptr @__zend_malloc(i64 noundef 80) #15
  br label %8

6:                                                ; preds = %3
  %7 = tail call noalias ptr @_emalloc_80() #14
  br label %8

8:                                                ; preds = %6, %4
  %9 = phi ptr [ %5, %4 ], [ %7, %6 ]
  %10 = zext i8 %2 to i32
  %11 = getelementptr inbounds i8, ptr %9, i64 16
  tail call void @llvm.memset.p0.i64(ptr noundef nonnull align 8 dereferenceable(80) %11, i8 0, i64 64, i1 false)
  store ptr %0, ptr %9, align 8
  %12 = getelementptr inbounds i8, ptr %9, i64 8
  store ptr %1, ptr %12, align 8
  %13 = getelementptr inbounds i8, ptr %9, i64 40
  store i32 %10, ptr %13, align 8
  ret ptr %9
}